target datalayout = "e-m:e-p270:32:32-p271:32:32-p272:64:64-i64:64-i128:128-f80:128-n8:16:32:64-S128"
target triple = "x86_64-pc-linux-gnu"

%"class.gmx::AtomsBuilder" = type { ptr, ptr, i32, i32, i32, i32 }
%struct.t_atoms = type { i32, ptr, ptr, ptr, ptr, i32, ptr, ptr, i8, i8, i8, i8, i8 }
%struct.t_atom = type { float, float, float, float, i16, i16, i32, i32, i32, [4 x i8] }
%struct.t_pdbinfo = type { i32, i32, i8, [6 x i8], float, float, i8, [6 x i32] }

; Function Attrs: mustprogress uwtable
define noundef ptr @_ZN3gmx12AtomsBuilder12symtabStringEPPc(ptr noundef nonnull align 8 dereferenceable(32) %0, ptr noundef %1) #1 align 2 {
  %3 = alloca ptr, align 8
  %4 = alloca ptr, align 8
  %5 = alloca ptr, align 8
  store ptr %0, ptr %4, align 8, !tbaa !4
  store ptr %1, ptr %5, align 8, !tbaa !35
  %6 = load ptr, ptr %4, align 8
  %7 = getelementptr inbounds nuw %"class.gmx::AtomsBuilder", ptr %6, i32 0, i32 1
  %8 = load ptr, ptr %7, align 8, !tbaa !16
  %9 = icmp ne ptr %8, null
  br i1 %9, label %10, label %16

10:                                               ; preds = %2
  %11 = getelementptr inbounds nuw %"class.gmx::AtomsBuilder", ptr %6, i32 0, i32 1
  %12 = load ptr, ptr %11, align 8, !tbaa !16
  %13 = load ptr, ptr %5, align 8, !tbaa !35
  %14 = load ptr, ptr %13, align 8, !tbaa !36
  %15 = call noundef ptr @_Z10put_symtabP8t_symtabPKc(ptr noundef %12, ptr noundef %14)
  store ptr %15, ptr %3, align 8
  br label %18

16:                                               ; preds = %2
  %17 = load ptr, ptr %5, align 8, !tbaa !35
  store ptr %17, ptr %3, align 8
  br label %18

18:                                               ; preds = %16, %10
  %19 = load ptr, ptr %3, align 8
  ret ptr %19
}

; Function Attrs: mustprogress uwtable
define void @_ZN3gmx12AtomsBuilder7addAtomERK7t_atomsi(ptr noundef nonnull align 8 dereferenceable(32) %0, ptr noundef nonnull align 8 dereferenceable(72) %1, i32 noundef %2) #1 align 2 {
  %4 = alloca ptr, align 8
  %5 = alloca ptr, align 8
  %6 = alloca i32, align 4
  %7 = alloca i32, align 4
  store ptr %0, ptr %4, align 8, !tbaa !4
  store ptr %1, ptr %5, align 8, !tbaa !9
  store i32 %2, ptr %6, align 4, !tbaa !38
  %8 = load ptr, ptr %4, align 8
  call void @llvm.lifetime.start.p0(i64 4, ptr %7) #13
  %9 = getelementptr inbounds nuw %"class.gmx::AtomsBuilder", ptr %8, i32 0, i32 0
  %10 = load ptr, ptr %9, align 8, !tbaa !13
  %11 = getelementptr inbounds nuw %struct.t_atoms, ptr %10, i32 0, i32 0
  %12 = load i32, ptr %11, align 8, !tbaa !17
  store i32 %12, ptr %7, align 4, !tbaa !38
  %13 = load ptr, ptr %5, align 8, !tbaa !9
  %14 = getelementptr inbounds nuw %struct.t_atoms, ptr %13, i32 0, i32 1
  %15 = load ptr, ptr %14, align 8, !tbaa !55
  %16 = load i32, ptr %6, align 4, !tbaa !38
  %17 = sext i32 %16 to i64
  %18 = getelementptr inbounds %struct.t_atom, ptr %15, i64 %17
  %19 = getelementptr inbounds nuw %"class.gmx::AtomsBuilder", ptr %8, i32 0, i32 0
  %20 = load ptr, ptr %19, align 8, !tbaa !13
  %21 = getelementptr inbounds nuw %struct.t_atoms, ptr %20, i32 0, i32 1
  %22 = load ptr, ptr %21, align 8, !tbaa !55
  %23 = load i32, ptr %7, align 4, !tbaa !38
  %24 = sext i32 %23 to i64
  %25 = getelementptr inbounds %struct.t_atom, ptr %22, i64 %24
  call void @llvm.memcpy.p0.p0.i64(ptr align 4 %25, ptr align 4 %18, i64 36, i1 false), !tbaa.struct !56
  %26 = load ptr, ptr %5, align 8, !tbaa !9
  %27 = getelementptr inbounds nuw %struct.t_atoms, ptr %26, i32 0, i32 2
  %28 = load ptr, ptr %27, align 8, !tbaa !64
  %29 = load i32, ptr %6, align 4, !tbaa !38
  %30 = sext i32 %29 to i64
  %31 = getelementptr inbounds ptr, ptr %28, i64 %30
  %32 = load ptr, ptr %31, align 8, !tbaa !35
  %33 = call noundef ptr @_ZN3gmx12AtomsBuilder12symtabStringEPPc(ptr noundef nonnull align 8 dereferenceable(32) %8, ptr noundef %32)
  %34 = getelementptr inbounds nuw %"class.gmx::AtomsBuilder", ptr %8, i32 0, i32 0
  %35 = load ptr, ptr %34, align 8, !tbaa !13
  %36 = getelementptr inbounds nuw %struct.t_atoms, ptr %35, i32 0, i32 2
  %37 = load ptr, ptr %36, align 8, !tbaa !64
  %38 = load i32, ptr %7, align 4, !tbaa !38
  %39 = sext i32 %38 to i64
  %40 = getelementptr inbounds ptr, ptr %37, i64 %39
  store ptr %33, ptr %40, align 8, !tbaa !35
  %41 = getelementptr inbounds nuw %"class.gmx::AtomsBuilder", ptr %8, i32 0, i32 4
  %42 = load i32, ptr %41, align 8, !tbaa !29
  %43 = getelementptr inbounds nuw %"class.gmx::AtomsBuilder", ptr %8, i32 0, i32 0
  %44 = load ptr, ptr %43, align 8, !tbaa !13
  %45 = getelementptr inbounds nuw %struct.t_atoms, ptr %44, i32 0, i32 1
  %46 = load ptr, ptr %45, align 8, !tbaa !55
  %47 = load i32, ptr %7, align 4, !tbaa !38
  %48 = sext i32 %47 to i64
  %49 = getelementptr inbounds %struct.t_atom, ptr %46, i64 %48
  %50 = getelementptr inbounds nuw %struct.t_atom, ptr %49, i32 0, i32 7
  store i32 %42, ptr %50, align 4, !tbaa !65
  %51 = getelementptr inbounds nuw %"class.gmx::AtomsBuilder", ptr %8, i32 0, i32 0
  %52 = load ptr, ptr %51, align 8, !tbaa !13
  %53 = getelementptr inbounds nuw %struct.t_atoms, ptr %52, i32 0, i32 7
  %54 = load ptr, ptr %53, align 8, !tbaa !39
  %55 = icmp ne ptr %54, null
  br i1 %55, label %56, label %84

56:                                               ; preds = %3
  %57 = load ptr, ptr %5, align 8, !tbaa !9
  %58 = getelementptr inbounds nuw %struct.t_atoms, ptr %57, i32 0, i32 7
  %59 = load ptr, ptr %58, align 8, !tbaa !39
  %60 = icmp ne ptr %59, null
  br i1 %60, label %61, label %75

61:                                               ; preds = %56
  %62 = load ptr, ptr %5, align 8, !tbaa !9
  %63 = getelementptr inbounds nuw %struct.t_atoms, ptr %62, i32 0, i32 7
  %64 = load ptr, ptr %63, align 8, !tbaa !39
  %65 = load i32, ptr %6, align 4, !tbaa !38
  %66 = sext i32 %65 to i64
  %67 = getelementptr inbounds %struct.t_pdbinfo, ptr %64, i64 %66
  %68 = getelementptr inbounds nuw %"class.gmx::AtomsBuilder", ptr %8, i32 0, i32 0
  %69 = load ptr, ptr %68, align 8, !tbaa !13
  %70 = getelementptr inbounds nuw %struct.t_atoms, ptr %69, i32 0, i32 7
  %71 = load ptr, ptr %70, align 8, !tbaa !39
  %72 = load i32, ptr %7, align 4, !tbaa !38
  %73 = sext i32 %72 to i64
  %74 = getelementptr inbounds %struct.t_pdbinfo, ptr %71, i64 %73
  call void @llvm.memcpy.p0.p0.i64(ptr align 4 %74, ptr align 4 %67, i64 52, i1 false), !tbaa.struct !67
  br label %83

75:                                               ; preds = %56
  %76 = getelementptr inbounds nuw %"class.gmx::AtomsBuilder", ptr %8, i32 0, i32 0
  %77 = load ptr, ptr %76, align 8, !tbaa !13
  %78 = getelementptr inbounds nuw %struct.t_atoms, ptr %77, i32 0, i32 7
  %79 = load ptr, ptr %78, align 8, !tbaa !39
  %80 = load i32, ptr %7, align 4, !tbaa !38
  %81 = sext i32 %80 to i64
  %82 = getelementptr inbounds %struct.t_pdbinfo, ptr %79, i64 %81
  call void @_Z24gmx_pdbinfo_init_defaultP9t_pdbinfo(ptr noundef %82)
  br label %83

83:                                               ; preds = %75, %61
  br label %84

84:                                               ; preds = %83, %3
  %85 = getelementptr inbounds nuw %"class.gmx::AtomsBuilder", ptr %8, i32 0, i32 0
  %86 = load ptr, ptr %85, align 8, !tbaa !13
  %87 = getelementptr inbounds nuw %struct.t_atoms, ptr %86, i32 0, i32 0
  %88 = load i32, ptr %87, align 8, !tbaa !17
  %89 = add nsw i32 %88, 1
  store i32 %89, ptr %87, align 8, !tbaa !17
  call void @llvm.lifetime.end.p0(i64 4, ptr %7) #13
  ret void
}