; Function Attrs: mustprogress uwtable
define void @_ZN3gmx12AtomsBuilder7addAtomERK7t_atomsi(ptr noundef nonnull readonly align 8 captures(none) dereferenceable(32) %0, ptr noundef nonnull readonly align 8 captures(none) dereferenceable(72) %1, i32 noundef %2) local_unnamed_addr #2 align 2 {
  %4 = load ptr, ptr %0, align 8, !tbaa !4
  %5 = load i32, ptr %4, align 8, !tbaa !13
  %6 = getelementptr inbounds nuw i8, ptr %1, i64 8
  %7 = load ptr, ptr %6, align 8, !tbaa !38
  %8 = sext i32 %2 to i64
  %9 = getelementptr inbounds %struct.t_atom, ptr %7, i64 %8
  %10 = getelementptr inbounds nuw i8, ptr %4, i64 8
  %11 = load ptr, ptr %10, align 8, !tbaa !38
  %12 = sext i32 %5 to i64
  %13 = getelementptr inbounds %struct.t_atom, ptr %11, i64 %12
  tail call void @llvm.memcpy.p0.p0.i64(ptr noundef nonnull align 4 dereferenceable(36) %13, ptr noundef nonnull align 4 dereferenceable(36) %9, i64 36, i1 false), !tbaa.struct !39
  %14 = getelementptr inbounds nuw i8, ptr %1, i64 16
  %15 = load ptr, ptr %14, align 8, !tbaa !48
  %16 = getelementptr inbounds ptr, ptr %15, i64 %8
  %17 = load ptr, ptr %16, align 8, !tbaa !49
  %18 = getelementptr inbounds nuw i8, ptr %0, i64 8
  %19 = load ptr, ptr %18, align 8, !tbaa !12
  %.not.i = icmp eq ptr %19, null
  br i1 %.not.i, label %_ZN3gmx12AtomsBuilder12symtabStringEPPc.exit, label %20

20:                                               ; preds = %3
  %21 = load ptr, ptr %17, align 8, !tbaa !31
  %22 = tail call noundef ptr @_Z10put_symtabP8t_symtabPKc(ptr noundef nonnull %19, ptr noundef %21)
  br label %_ZN3gmx12AtomsBuilder12symtabStringEPPc.exit

_ZN3gmx12AtomsBuilder12symtabStringEPPc.exit:     ; preds = %3, %20
  %.0.i = phi ptr [ %22, %20 ], [ %17, %3 ]
  %23 = load ptr, ptr %0, align 8, !tbaa !4
  %24 = getelementptr inbounds nuw i8, ptr %23, i64 16
  %25 = load ptr, ptr %24, align 8, !tbaa !48
  %26 = getelementptr inbounds ptr, ptr %25, i64 %12
  store ptr %.0.i, ptr %26, align 8, !tbaa !49
  %27 = getelementptr inbounds nuw i8, ptr %0, i64 24
  %28 = load i32, ptr %27, align 8, !tbaa !25
  %29 = getelementptr inbounds nuw i8, ptr %23, i64 8
  %30 = load ptr, ptr %29, align 8, !tbaa !38
  %31 = getelementptr inbounds %struct.t_atom, ptr %30, i64 %12, i32 7
  store i32 %28, ptr %31, align 4, !tbaa !50
  %32 = getelementptr inbounds nuw i8, ptr %23, i64 56
  %33 = load ptr, ptr %32, align 8, !tbaa !36
  %.not = icmp eq ptr %33, null
  br i1 %.not, label %42, label %34

34:                                               ; preds = %_ZN3gmx12AtomsBuilder12symtabStringEPPc.exit
  %35 = getelementptr inbounds nuw i8, ptr %1, i64 56
  %36 = load ptr, ptr %35, align 8, !tbaa !36
  %.not13 = icmp eq ptr %36, null
  br i1 %.not13, label %40, label %37

37:                                               ; preds = %34
  %38 = getelementptr inbounds %struct.t_pdbinfo, ptr %36, i64 %8
  %39 = getelementptr inbounds %struct.t_pdbinfo, ptr %33, i64 %12
  tail call void @llvm.memcpy.p0.p0.i64(ptr noundef nonnull align 4 dereferenceable(52) %39, ptr noundef nonnull align 4 dereferenceable(52) %38, i64 52, i1 false), !tbaa.struct !52
  br label %42

40:                                               ; preds = %34
  %41 = getelementptr inbounds %struct.t_pdbinfo, ptr %33, i64 %12
  tail call void @_Z24gmx_pdbinfo_init_defaultP9t_pdbinfo(ptr noundef nonnull %41)
  br label %42

42:                                               ; preds = %37, %40, %_ZN3gmx12AtomsBuilder12symtabStringEPPc.exit
  %43 = load ptr, ptr %0, align 8, !tbaa !4
  %44 = load i32, ptr %43, align 8, !tbaa !13
  %45 = add nsw i32 %44, 1
  store i32 %45, ptr %43, align 8, !tbaa !13
  ret void
}